; Function Attrs: nounwind uwtable
define internal fastcc void @setFilePath(ptr %.592.val.0.val, ptr noundef nonnull %0, ptr noundef readonly captures(none) %1) unnamed_addr #0 {
  %3 = tail call i64 @strlen(ptr noundef nonnull dereferenceable(1) %.592.val.0.val) #17
  %4 = tail call i64 @strlen(ptr noundef nonnull dereferenceable(1) %1) #17
  %5 = add i64 %3, -1023
  %6 = add i64 %5, %4
  %7 = icmp ult i64 %6, -1025
  br i1 %7, label %8, label %9

8:                                                ; preds = %2
  tail call void (i32, i32, ptr, ...) @pg_log_generic(i32 noundef 4, i32 noundef 0, ptr noundef nonnull @.str.33, ptr noundef nonnull %.592.val.0.val) #14
  tail call void @exit_nicely(i32 noundef 1) #15
  unreachable

9:                                                ; preds = %2
  %10 = tail call ptr @strcpy(ptr noundef nonnull dereferenceable(1) %0, ptr noundef nonnull dereferenceable(1) %.592.val.0.val) #14
  %strlen = tail call i64 @strlen(ptr nonnull dereferenceable(1) %0)
  %endptr = getelementptr inbounds i8, ptr %0, i64 %strlen
  store i16 47, ptr %endptr, align 1
  %11 = tail call ptr @strcat(ptr noundef nonnull dereferenceable(1) %0, ptr noundef nonnull dereferenceable(1) %1) #14
  ret void
}